; Function Attrs: mustprogress uwtable
define void @_ZN15VoipCallsDialog35on_actionSelectRtpStreams_triggeredEv(ptr noundef nonnull align 8 dereferenceable(480) %0) local_unnamed_addr #0 align 2 personality ptr @__gxx_personality_v0 {
  %2 = alloca %class.QList.12, align 8
  %3 = alloca %class.QList.12, align 8
  %4 = alloca %class.QList.12, align 8
  %5 = alloca %class.QList.12, align 8
  call void @_ZN15VoipCallsDialog17getSelectedRtpIdsEv(ptr dead_on_unwind nonnull writable sret(%class.QList.12) align 8 %3, ptr noundef nonnull align 8 dereferenceable(480) %0)
  invoke void @_Z26qvector_rtpstream_ids_copy5QListIP13_rtpstream_idE(ptr dead_on_unwind nonnull writable sret(%class.QList.12) align 8 %2, ptr noundef nonnull %3)
          to label %6 unwind label %42

6:                                                ; preds = %1
  %7 = load ptr, ptr %3, align 8
  %.not.i.i.i = icmp eq ptr %7, null
  br i1 %.not.i.i.i, label %_ZN5QListIP13_rtpstream_idED2Ev.exit, label %_ZN17QArrayDataPointerIP13_rtpstream_idE5derefEv.exit.i.i

_ZN17QArrayDataPointerIP13_rtpstream_idE5derefEv.exit.i.i: ; preds = %6
  %8 = atomicrmw sub ptr %7, i32 1 seq_cst, align 4
  %.not.i.i = icmp eq i32 %8, 1
  br i1 %.not.i.i, label %9, label %_ZN5QListIP13_rtpstream_idED2Ev.exit

9:                                                ; preds = %_ZN17QArrayDataPointerIP13_rtpstream_idE5derefEv.exit.i.i
  %10 = load ptr, ptr %3, align 8
  call void @_ZN10QArrayData10deallocateEPS_xx(ptr noundef %10, i64 noundef 8, i64 noundef 8) #19
  br label %_ZN5QListIP13_rtpstream_idED2Ev.exit

_ZN5QListIP13_rtpstream_idED2Ev.exit:             ; preds = %6, %_ZN17QArrayDataPointerIP13_rtpstream_idE5derefEv.exit.i.i, %9
  %11 = load ptr, ptr %2, align 8
  store ptr %11, ptr %4, align 8
  %12 = getelementptr inbounds i8, ptr %4, i64 8
  %13 = getelementptr inbounds i8, ptr %2, i64 8
  %14 = load ptr, ptr %13, align 8
  store ptr %14, ptr %12, align 8
  %15 = getelementptr inbounds i8, ptr %4, i64 16
  %16 = getelementptr inbounds i8, ptr %2, i64 16
  %17 = load i64, ptr %16, align 8
  store i64 %17, ptr %15, align 8
  %.not.i.i.i6 = icmp eq ptr %11, null
  br i1 %.not.i.i.i6, label %_ZN5QListIP13_rtpstream_idEC2ERKS2_.exit, label %18

18:                                               ; preds = %_ZN5QListIP13_rtpstream_idED2Ev.exit
  %19 = atomicrmw add ptr %11, i32 1 seq_cst, align 4
  br label %_ZN5QListIP13_rtpstream_idEC2ERKS2_.exit

_ZN5QListIP13_rtpstream_idEC2ERKS2_.exit:         ; preds = %_ZN5QListIP13_rtpstream_idED2Ev.exit, %18
  invoke void @_ZN15VoipCallsDialog32rtpStreamsDialogSelectRtpStreamsE5QListIP13_rtpstream_idE(ptr noundef nonnull align 8 dereferenceable(480) %0, ptr noundef nonnull %4)
          to label %20 unwind label %46

20:                                               ; preds = %_ZN5QListIP13_rtpstream_idEC2ERKS2_.exit
  %21 = load ptr, ptr %4, align 8
  %.not.i.i.i7 = icmp eq ptr %21, null
  br i1 %.not.i.i.i7, label %_ZN5QListIP13_rtpstream_idED2Ev.exit10, label %_ZN17QArrayDataPointerIP13_rtpstream_idE5derefEv.exit.i.i8

_ZN17QArrayDataPointerIP13_rtpstream_idE5derefEv.exit.i.i8: ; preds = %20
  %22 = atomicrmw sub ptr %21, i32 1 seq_cst, align 4
  %.not.i.i9 = icmp eq i32 %22, 1
  br i1 %.not.i.i9, label %23, label %_ZN5QListIP13_rtpstream_idED2Ev.exit10

23:                                               ; preds = %_ZN17QArrayDataPointerIP13_rtpstream_idE5derefEv.exit.i.i8
  %24 = load ptr, ptr %4, align 8
  call void @_ZN10QArrayData10deallocateEPS_xx(ptr noundef %24, i64 noundef 8, i64 noundef 8) #19
  br label %_ZN5QListIP13_rtpstream_idED2Ev.exit10

_ZN5QListIP13_rtpstream_idED2Ev.exit10:           ; preds = %20, %_ZN17QArrayDataPointerIP13_rtpstream_idE5derefEv.exit.i.i8, %23
  %25 = load ptr, ptr %2, align 8
  store ptr %25, ptr %5, align 8
  %26 = getelementptr inbounds i8, ptr %5, i64 8
  %27 = load ptr, ptr %13, align 8
  store ptr %27, ptr %26, align 8
  %28 = getelementptr inbounds i8, ptr %5, i64 16
  %29 = load i64, ptr %16, align 8
  store i64 %29, ptr %28, align 8
  %.not.i.i.i11 = icmp eq ptr %25, null
  br i1 %.not.i.i.i11, label %_ZN5QListIP13_rtpstream_idEC2ERKS2_.exit12, label %30

30:                                               ; preds = %_ZN5QListIP13_rtpstream_idED2Ev.exit10
  %31 = atomicrmw add ptr %25, i32 1 seq_cst, align 4
  br label %_ZN5QListIP13_rtpstream_idEC2ERKS2_.exit12

_ZN5QListIP13_rtpstream_idEC2ERKS2_.exit12:       ; preds = %_ZN5QListIP13_rtpstream_idED2Ev.exit10, %30
  invoke void @_Z26qvector_rtpstream_ids_free5QListIP13_rtpstream_idE(ptr noundef nonnull %5)
          to label %32 unwind label %52

32:                                               ; preds = %_ZN5QListIP13_rtpstream_idEC2ERKS2_.exit12
  %33 = load ptr, ptr %5, align 8
  %.not.i.i.i13 = icmp eq ptr %33, null
  br i1 %.not.i.i.i13, label %_ZN5QListIP13_rtpstream_idED2Ev.exit16, label %_ZN17QArrayDataPointerIP13_rtpstream_idE5derefEv.exit.i.i14

_ZN17QArrayDataPointerIP13_rtpstream_idE5derefEv.exit.i.i14: ; preds = %32
  %34 = atomicrmw sub ptr %33, i32 1 seq_cst, align 4
  %.not.i.i15 = icmp eq i32 %34, 1
  br i1 %.not.i.i15, label %35, label %_ZN5QListIP13_rtpstream_idED2Ev.exit16

35:                                               ; preds = %_ZN17QArrayDataPointerIP13_rtpstream_idE5derefEv.exit.i.i14
  %36 = load ptr, ptr %5, align 8
  call void @_ZN10QArrayData10deallocateEPS_xx(ptr noundef %36, i64 noundef 8, i64 noundef 8) #19
  br label %_ZN5QListIP13_rtpstream_idED2Ev.exit16

_ZN5QListIP13_rtpstream_idED2Ev.exit16:           ; preds = %32, %_ZN17QArrayDataPointerIP13_rtpstream_idE5derefEv.exit.i.i14, %35
  invoke void @_ZN7QWidget5raiseEv(ptr noundef nonnull align 8 dereferenceable(40) %0)
          to label %37 unwind label %58

37:                                               ; preds = %_ZN5QListIP13_rtpstream_idED2Ev.exit16
  %38 = load ptr, ptr %2, align 8
  %.not.i.i.i17 = icmp eq ptr %38, null
  br i1 %.not.i.i.i17, label %_ZN5QListIP13_rtpstream_idED2Ev.exit20, label %_ZN17QArrayDataPointerIP13_rtpstream_idE5derefEv.exit.i.i18

_ZN17QArrayDataPointerIP13_rtpstream_idE5derefEv.exit.i.i18: ; preds = %37
  %39 = atomicrmw sub ptr %38, i32 1 seq_cst, align 4
  %.not.i.i19 = icmp eq i32 %39, 1
  br i1 %.not.i.i19, label %40, label %_ZN5QListIP13_rtpstream_idED2Ev.exit20

40:                                               ; preds = %_ZN17QArrayDataPointerIP13_rtpstream_idE5derefEv.exit.i.i18
  %41 = load ptr, ptr %2, align 8
  call void @_ZN10QArrayData10deallocateEPS_xx(ptr noundef %41, i64 noundef 8, i64 noundef 8) #19
  br label %_ZN5QListIP13_rtpstream_idED2Ev.exit20

_ZN5QListIP13_rtpstream_idED2Ev.exit20:           ; preds = %37, %_ZN17QArrayDataPointerIP13_rtpstream_idE5derefEv.exit.i.i18, %40
  ret void

42:                                               ; preds = %1
  %43 = landingpad { ptr, i32 }
          cleanup
  %44 = load ptr, ptr %3, align 8
  %.not.i.i.i21 = icmp eq ptr %44, null
  br i1 %.not.i.i.i21, label %_ZN5QListIP13_rtpstream_idED2Ev.exit24, label %_ZN17QArrayDataPointerIP13_rtpstream_idE5derefEv.exit.i.i22

_ZN17QArrayDataPointerIP13_rtpstream_idE5derefEv.exit.i.i22: ; preds = %42
  %45 = atomicrmw sub ptr %44, i32 1 seq_cst, align 4
  %.not.i.i23 = icmp eq i32 %45, 1
  br i1 %.not.i.i23, label %_ZN5QListIP13_rtpstream_idED2Ev.exit24.sink.split, label %_ZN5QListIP13_rtpstream_idED2Ev.exit24

46:                                               ; preds = %_ZN5QListIP13_rtpstream_idEC2ERKS2_.exit
  %47 = landingpad { ptr, i32 }
          cleanup
  %48 = load ptr, ptr %4, align 8
  %.not.i.i.i25 = icmp eq ptr %48, null
  br i1 %.not.i.i.i25, label %_ZN5QListIP13_rtpstream_idED2Ev.exit28, label %_ZN17QArrayDataPointerIP13_rtpstream_idE5derefEv.exit.i.i26

_ZN17QArrayDataPointerIP13_rtpstream_idE5derefEv.exit.i.i26: ; preds = %46
  %49 = atomicrmw sub ptr %48, i32 1 seq_cst, align 4
  %.not.i.i27 = icmp eq i32 %49, 1
  br i1 %.not.i.i27, label %50, label %_ZN5QListIP13_rtpstream_idED2Ev.exit28

50:                                               ; preds = %_ZN17QArrayDataPointerIP13_rtpstream_idE5derefEv.exit.i.i26
  %51 = load ptr, ptr %4, align 8
  call void @_ZN10QArrayData10deallocateEPS_xx(ptr noundef %51, i64 noundef 8, i64 noundef 8) #19
  br label %_ZN5QListIP13_rtpstream_idED2Ev.exit28

52:                                               ; preds = %_ZN5QListIP13_rtpstream_idEC2ERKS2_.exit12
  %53 = landingpad { ptr, i32 }
          cleanup
  %54 = load ptr, ptr %5, align 8
  %.not.i.i.i29 = icmp eq ptr %54, null
  br i1 %.not.i.i.i29, label %_ZN5QListIP13_rtpstream_idED2Ev.exit28, label %_ZN17QArrayDataPointerIP13_rtpstream_idE5derefEv.exit.i.i30

_ZN17QArrayDataPointerIP13_rtpstream_idE5derefEv.exit.i.i30: ; preds = %52
  %55 = atomicrmw sub ptr %54, i32 1 seq_cst, align 4
  %.not.i.i31 = icmp eq i32 %55, 1
  br i1 %.not.i.i31, label %56, label %_ZN5QListIP13_rtpstream_idED2Ev.exit28

56:                                               ; preds = %_ZN17QArrayDataPointerIP13_rtpstream_idE5derefEv.exit.i.i30
  %57 = load ptr, ptr %5, align 8
  call void @_ZN10QArrayData10deallocateEPS_xx(ptr noundef %57, i64 noundef 8, i64 noundef 8) #19
  br label %_ZN5QListIP13_rtpstream_idED2Ev.exit28

58:                                               ; preds = %_ZN5QListIP13_rtpstream_idED2Ev.exit16
  %59 = landingpad { ptr, i32 }
          cleanup
  br label %_ZN5QListIP13_rtpstream_idED2Ev.exit28

_ZN5QListIP13_rtpstream_idED2Ev.exit28:           ; preds = %56, %_ZN17QArrayDataPointerIP13_rtpstream_idE5derefEv.exit.i.i30, %52, %50, %_ZN17QArrayDataPointerIP13_rtpstream_idE5derefEv.exit.i.i26, %46, %58
  %.pn = phi { ptr, i32 } [ %59, %58 ], [ %47, %46 ], [ %47, %_ZN17QArrayDataPointerIP13_rtpstream_idE5derefEv.exit.i.i26 ], [ %47, %50 ], [ %53, %52 ], [ %53, %_ZN17QArrayDataPointerIP13_rtpstream_idE5derefEv.exit.i.i30 ], [ %53, %56 ]
  %60 = load ptr, ptr %2, align 8
  %.not.i.i.i33 = icmp eq ptr %60, null
  br i1 %.not.i.i.i33, label %_ZN5QListIP13_rtpstream_idED2Ev.exit24, label %_ZN17QArrayDataPointerIP13_rtpstream_idE5derefEv.exit.i.i34

_ZN17QArrayDataPointerIP13_rtpstream_idE5derefEv.exit.i.i34: ; preds = %_ZN5QListIP13_rtpstream_idED2Ev.exit28
  %61 = atomicrmw sub ptr %60, i32 1 seq_cst, align 4
  %.not.i.i35 = icmp eq i32 %61, 1
  br i1 %.not.i.i35, label %_ZN5QListIP13_rtpstream_idED2Ev.exit24.sink.split, label %_ZN5QListIP13_rtpstream_idED2Ev.exit24

_ZN5QListIP13_rtpstream_idED2Ev.exit24.sink.split: ; preds = %_ZN17QArrayDataPointerIP13_rtpstream_idE5derefEv.exit.i.i34, %_ZN17QArrayDataPointerIP13_rtpstream_idE5derefEv.exit.i.i22
  %.sink.in = phi ptr [ %3, %_ZN17QArrayDataPointerIP13_rtpstream_idE5derefEv.exit.i.i22 ], [ %2, %_ZN17QArrayDataPointerIP13_rtpstream_idE5derefEv.exit.i.i34 ]
  %.pn.pn.ph = phi { ptr, i32 } [ %43, %_ZN17QArrayDataPointerIP13_rtpstream_idE5derefEv.exit.i.i22 ], [ %.pn, %_ZN17QArrayDataPointerIP13_rtpstream_idE5derefEv.exit.i.i34 ]
  %.sink = load ptr, ptr %.sink.in, align 8
  call void @_ZN10QArrayData10deallocateEPS_xx(ptr noundef %.sink, i64 noundef 8, i64 noundef 8) #19
  br label %_ZN5QListIP13_rtpstream_idED2Ev.exit24

_ZN5QListIP13_rtpstream_idED2Ev.exit24:           ; preds = %_ZN5QListIP13_rtpstream_idED2Ev.exit24.sink.split, %_ZN17QArrayDataPointerIP13_rtpstream_idE5derefEv.exit.i.i34, %_ZN5QListIP13_rtpstream_idED2Ev.exit28, %_ZN17QArrayDataPointerIP13_rtpstream_idE5derefEv.exit.i.i22, %42
  %.pn.pn = phi { ptr, i32 } [ %43, %42 ], [ %43, %_ZN17QArrayDataPointerIP13_rtpstream_idE5derefEv.exit.i.i22 ], [ %.pn, %_ZN5QListIP13_rtpstream_idED2Ev.exit28 ], [ %.pn, %_ZN17QArrayDataPointerIP13_rtpstream_idE5derefEv.exit.i.i34 ], [ %.pn.pn.ph, %_ZN5QListIP13_rtpstream_idED2Ev.exit24.sink.split ]
  resume { ptr, i32 } %.pn.pn
}